target datalayout = "e-m:e-p270:32:32-p271:32:32-p272:64:64-i64:64-i128:128-f80:128-n8:16:32:64-S128"
target triple = "x86_64-pc-linux-gnu"

%"struct.Luau::CodeGen::A64::IrLoweringA64" = type <{ ptr, ptr, ptr, ptr, %"struct.Luau::CodeGen::A64::IrRegAllocA64", %"struct.Luau::CodeGen::IrValueLocationTracking", %"class.std::vector.0", %"class.std::vector.5", %"class.Luau::DenseHashMap", i8, [7 x i8] }>
%"struct.Luau::CodeGen::A64::IrRegAllocA64" = type <{ ptr, ptr, %"struct.Luau::CodeGen::A64::IrRegAllocA64::Set", %"struct.Luau::CodeGen::A64::IrRegAllocA64::Set", %"class.std::vector", i32, i8, [3 x i8] }>
%"struct.Luau::CodeGen::A64::IrRegAllocA64::Set" = type { i32, i32, i32, [32 x i32] }
%"class.std::vector" = type { %"struct.std::_Vector_base" }
%"struct.std::_Vector_base" = type { %"struct.std::_Vector_base<Luau::CodeGen::A64::IrRegAllocA64::Spill, std::allocator<Luau::CodeGen::A64::IrRegAllocA64::Spill>>::_Vector_impl" }
%"struct.std::_Vector_base<Luau::CodeGen::A64::IrRegAllocA64::Spill, std::allocator<Luau::CodeGen::A64::IrRegAllocA64::Spill>>::_Vector_impl" = type { %"struct.std::_Vector_base<Luau::CodeGen::A64::IrRegAllocA64::Spill, std::allocator<Luau::CodeGen::A64::IrRegAllocA64::Spill>>::_Vector_impl_data" }
%"struct.std::_Vector_base<Luau::CodeGen::A64::IrRegAllocA64::Spill, std::allocator<Luau::CodeGen::A64::IrRegAllocA64::Spill>>::_Vector_impl_data" = type { ptr, ptr, ptr }
%"struct.Luau::CodeGen::IrValueLocationTracking" = type { ptr, %"struct.std::array", i32, ptr, ptr }
%"struct.std::array" = type { [256 x i32] }
%"class.std::vector.0" = type { %"struct.std::_Vector_base.1" }
%"struct.std::_Vector_base.1" = type { %"struct.std::_Vector_base<Luau::CodeGen::A64::IrLoweringA64::InterruptHandler, std::allocator<Luau::CodeGen::A64::IrLoweringA64::InterruptHandler>>::_Vector_impl" }
%"struct.std::_Vector_base<Luau::CodeGen::A64::IrLoweringA64::InterruptHandler, std::allocator<Luau::CodeGen::A64::IrLoweringA64::InterruptHandler>>::_Vector_impl" = type { %"struct.std::_Vector_base<Luau::CodeGen::A64::IrLoweringA64::InterruptHandler, std::allocator<Luau::CodeGen::A64::IrLoweringA64::InterruptHandler>>::_Vector_impl_data" }
%"struct.std::_Vector_base<Luau::CodeGen::A64::IrLoweringA64::InterruptHandler, std::allocator<Luau::CodeGen::A64::IrLoweringA64::InterruptHandler>>::_Vector_impl_data" = type { ptr, ptr, ptr }
%"class.std::vector.5" = type { %"struct.std::_Vector_base.6" }
%"struct.std::_Vector_base.6" = type { %"struct.std::_Vector_base<Luau::CodeGen::A64::IrLoweringA64::ExitHandler, std::allocator<Luau::CodeGen::A64::IrLoweringA64::ExitHandler>>::_Vector_impl" }
%"struct.std::_Vector_base<Luau::CodeGen::A64::IrLoweringA64::ExitHandler, std::allocator<Luau::CodeGen::A64::IrLoweringA64::ExitHandler>>::_Vector_impl" = type { %"struct.std::_Vector_base<Luau::CodeGen::A64::IrLoweringA64::ExitHandler, std::allocator<Luau::CodeGen::A64::IrLoweringA64::ExitHandler>>::_Vector_impl_data" }
%"struct.std::_Vector_base<Luau::CodeGen::A64::IrLoweringA64::ExitHandler, std::allocator<Luau::CodeGen::A64::IrLoweringA64::ExitHandler>>::_Vector_impl_data" = type { ptr, ptr, ptr }
%"class.Luau::DenseHashMap" = type { %"class.Luau::detail::DenseHashTable" }
%"class.Luau::detail::DenseHashTable" = type <{ ptr, i64, i64, i32, [4 x i8] }>
%"struct.Luau::CodeGen::IrOp" = type { i32 }
%"struct.Luau::CodeGen::IrConst" = type { i8, %union.anon.80 }
%union.anon.80 = type { double }
%"class.std::vector.10" = type { %"struct.std::_Vector_base.11" }
%"struct.std::_Vector_base.11" = type { %"struct.std::_Vector_base<unsigned char, std::allocator<unsigned char>>::_Vector_impl" }
%"struct.std::_Vector_base<unsigned char, std::allocator<unsigned char>>::_Vector_impl" = type { %"struct.std::_Vector_base<unsigned char, std::allocator<unsigned char>>::_Vector_impl_data" }
%"struct.std::_Vector_base<unsigned char, std::allocator<unsigned char>>::_Vector_impl_data" = type { ptr, ptr, ptr }
%"class.std::vector.15" = type { %"struct.std::_Vector_base.16" }
%"struct.std::_Vector_base.16" = type { %"struct.std::_Vector_base<unsigned int, std::allocator<unsigned int>>::_Vector_impl" }
%"struct.std::_Vector_base<unsigned int, std::allocator<unsigned int>>::_Vector_impl" = type { %"struct.std::_Vector_base<unsigned int, std::allocator<unsigned int>>::_Vector_impl_data" }
%"struct.std::_Vector_base<unsigned int, std::allocator<unsigned int>>::_Vector_impl_data" = type { ptr, ptr, ptr }
%"struct.Luau::CodeGen::IrFunction" = type { %"class.std::vector.28", %"class.std::vector.33", %"class.std::vector.38", %"class.std::vector.43", %"class.std::vector.48", %"class.std::vector.53", i32, i32, %"class.std::vector.58", %"class.std::vector.15", %"struct.Luau::CodeGen::BytecodeTypeInfo", ptr, i8, %"struct.Luau::CodeGen::CfgInfo", ptr }
%"class.std::vector.28" = type { %"struct.std::_Vector_base.29" }
%"struct.std::_Vector_base.29" = type { %"struct.std::_Vector_base<Luau::CodeGen::IrBlock, std::allocator<Luau::CodeGen::IrBlock>>::_Vector_impl" }
%"struct.std::_Vector_base<Luau::CodeGen::IrBlock, std::allocator<Luau::CodeGen::IrBlock>>::_Vector_impl" = type { %"struct.std::_Vector_base<Luau::CodeGen::IrBlock, std::allocator<Luau::CodeGen::IrBlock>>::_Vector_impl_data" }
%"struct.std::_Vector_base<Luau::CodeGen::IrBlock, std::allocator<Luau::CodeGen::IrBlock>>::_Vector_impl_data" = type { ptr, ptr, ptr }
%"class.std::vector.33" = type { %"struct.std::_Vector_base.34" }
%"struct.std::_Vector_base.34" = type { %"struct.std::_Vector_base<Luau::CodeGen::IrInst, std::allocator<Luau::CodeGen::IrInst>>::_Vector_impl" }
%"struct.std::_Vector_base<Luau::CodeGen::IrInst, std::allocator<Luau::CodeGen::IrInst>>::_Vector_impl" = type { %"struct.std::_Vector_base<Luau::CodeGen::IrInst, std::allocator<Luau::CodeGen::IrInst>>::_Vector_impl_data" }
%"struct.std::_Vector_base<Luau::CodeGen::IrInst, std::allocator<Luau::CodeGen::IrInst>>::_Vector_impl_data" = type { ptr, ptr, ptr }
%"class.std::vector.38" = type { %"struct.std::_Vector_base.39" }
%"struct.std::_Vector_base.39" = type { %"struct.std::_Vector_base<Luau::CodeGen::IrConst, std::allocator<Luau::CodeGen::IrConst>>::_Vector_impl" }
%"struct.std::_Vector_base<Luau::CodeGen::IrConst, std::allocator<Luau::CodeGen::IrConst>>::_Vector_impl" = type { %"struct.std::_Vector_base<Luau::CodeGen::IrConst, std::allocator<Luau::CodeGen::IrConst>>::_Vector_impl_data" }
%"struct.std::_Vector_base<Luau::CodeGen::IrConst, std::allocator<Luau::CodeGen::IrConst>>::_Vector_impl_data" = type { ptr, ptr, ptr }
%"class.std::vector.43" = type { %"struct.std::_Vector_base.44" }
%"struct.std::_Vector_base.44" = type { %"struct.std::_Vector_base<Luau::CodeGen::BytecodeBlock, std::allocator<Luau::CodeGen::BytecodeBlock>>::_Vector_impl" }
%"struct.std::_Vector_base<Luau::CodeGen::BytecodeBlock, std::allocator<Luau::CodeGen::BytecodeBlock>>::_Vector_impl" = type { %"struct.std::_Vector_base<Luau::CodeGen::BytecodeBlock, std::allocator<Luau::CodeGen::BytecodeBlock>>::_Vector_impl_data" }
%"struct.std::_Vector_base<Luau::CodeGen::BytecodeBlock, std::allocator<Luau::CodeGen::BytecodeBlock>>::_Vector_impl_data" = type { ptr, ptr, ptr }
%"class.std::vector.48" = type { %"struct.std::_Vector_base.49" }
%"struct.std::_Vector_base.49" = type { %"struct.std::_Vector_base<Luau::CodeGen::BytecodeTypes, std::allocator<Luau::CodeGen::BytecodeTypes>>::_Vector_impl" }
%"struct.std::_Vector_base<Luau::CodeGen::BytecodeTypes, std::allocator<Luau::CodeGen::BytecodeTypes>>::_Vector_impl" = type { %"struct.std::_Vector_base<Luau::CodeGen::BytecodeTypes, std::allocator<Luau::CodeGen::BytecodeTypes>>::_Vector_impl_data" }
%"struct.std::_Vector_base<Luau::CodeGen::BytecodeTypes, std::allocator<Luau::CodeGen::BytecodeTypes>>::_Vector_impl_data" = type { ptr, ptr, ptr }
%"class.std::vector.53" = type { %"struct.std::_Vector_base.54" }
%"struct.std::_Vector_base.54" = type { %"struct.std::_Vector_base<Luau::CodeGen::BytecodeMapping, std::allocator<Luau::CodeGen::BytecodeMapping>>::_Vector_impl" }
%"struct.std::_Vector_base<Luau::CodeGen::BytecodeMapping, std::allocator<Luau::CodeGen::BytecodeMapping>>::_Vector_impl" = type { %"struct.std::_Vector_base<Luau::CodeGen::BytecodeMapping, std::allocator<Luau::CodeGen::BytecodeMapping>>::_Vector_impl_data" }
%"struct.std::_Vector_base<Luau::CodeGen::BytecodeMapping, std::allocator<Luau::CodeGen::BytecodeMapping>>::_Vector_impl_data" = type { ptr, ptr, ptr }
%"class.std::vector.58" = type { %"struct.std::_Vector_base.59" }
%"struct.std::_Vector_base.59" = type { %"struct.std::_Vector_base<Luau::CodeGen::IrOp, std::allocator<Luau::CodeGen::IrOp>>::_Vector_impl" }
%"struct.std::_Vector_base<Luau::CodeGen::IrOp, std::allocator<Luau::CodeGen::IrOp>>::_Vector_impl" = type { %"struct.std::_Vector_base<Luau::CodeGen::IrOp, std::allocator<Luau::CodeGen::IrOp>>::_Vector_impl_data" }
%"struct.std::_Vector_base<Luau::CodeGen::IrOp, std::allocator<Luau::CodeGen::IrOp>>::_Vector_impl_data" = type { ptr, ptr, ptr }
%"struct.Luau::CodeGen::BytecodeTypeInfo" = type { %"class.std::vector.10", %"class.std::vector.63", %"class.std::vector.10", %"class.std::vector.15" }
%"class.std::vector.63" = type { %"struct.std::_Vector_base.64" }
%"struct.std::_Vector_base.64" = type { %"struct.std::_Vector_base<Luau::CodeGen::BytecodeRegTypeInfo, std::allocator<Luau::CodeGen::BytecodeRegTypeInfo>>::_Vector_impl" }
%"struct.std::_Vector_base<Luau::CodeGen::BytecodeRegTypeInfo, std::allocator<Luau::CodeGen::BytecodeRegTypeInfo>>::_Vector_impl" = type { %"struct.std::_Vector_base<Luau::CodeGen::BytecodeRegTypeInfo, std::allocator<Luau::CodeGen::BytecodeRegTypeInfo>>::_Vector_impl_data" }
%"struct.std::_Vector_base<Luau::CodeGen::BytecodeRegTypeInfo, std::allocator<Luau::CodeGen::BytecodeRegTypeInfo>>::_Vector_impl_data" = type { ptr, ptr, ptr }
%"struct.Luau::CodeGen::CfgInfo" = type { %"class.std::vector.15", %"class.std::vector.15", %"class.std::vector.15", %"class.std::vector.15", %"class.std::vector.15", %"class.std::vector.15", %"class.std::vector.15", %"class.std::vector.68", %"class.std::vector.73", %"class.std::vector.73", %"class.std::vector.73", %"struct.Luau::CodeGen::RegisterSet" }
%"class.std::vector.68" = type { %"struct.std::_Vector_base.69" }
%"struct.std::_Vector_base.69" = type { %"struct.std::_Vector_base<Luau::CodeGen::BlockOrdering, std::allocator<Luau::CodeGen::BlockOrdering>>::_Vector_impl" }
%"struct.std::_Vector_base<Luau::CodeGen::BlockOrdering, std::allocator<Luau::CodeGen::BlockOrdering>>::_Vector_impl" = type { %"struct.std::_Vector_base<Luau::CodeGen::BlockOrdering, std::allocator<Luau::CodeGen::BlockOrdering>>::_Vector_impl_data" }
%"struct.std::_Vector_base<Luau::CodeGen::BlockOrdering, std::allocator<Luau::CodeGen::BlockOrdering>>::_Vector_impl_data" = type { ptr, ptr, ptr }
%"class.std::vector.73" = type { %"struct.std::_Vector_base.74" }
%"struct.std::_Vector_base.74" = type { %"struct.std::_Vector_base<Luau::CodeGen::RegisterSet, std::allocator<Luau::CodeGen::RegisterSet>>::_Vector_impl" }
%"struct.std::_Vector_base<Luau::CodeGen::RegisterSet, std::allocator<Luau::CodeGen::RegisterSet>>::_Vector_impl" = type { %"struct.std::_Vector_base<Luau::CodeGen::RegisterSet, std::allocator<Luau::CodeGen::RegisterSet>>::_Vector_impl_data" }
%"struct.std::_Vector_base<Luau::CodeGen::RegisterSet, std::allocator<Luau::CodeGen::RegisterSet>>::_Vector_impl_data" = type { ptr, ptr, ptr }
%"struct.Luau::CodeGen::RegisterSet" = type <{ %"class.std::bitset", i8, i8, [6 x i8] }>
%"class.std::bitset" = type { %"struct.std::_Base_bitset" }
%"struct.std::_Base_bitset" = type { [4 x i64] }

; Function Attrs: mustprogress nounwind uwtable
define linkonce_odr dso_local noundef nonnull align 8 dereferenceable(16) ptr @_ZNSt6vectorIN4Luau7CodeGen7IrConstESaIS2_EEixEm(ptr noundef nonnull align 8 dereferenceable(24) %0, i64 noundef %1) #2 comdat align 2 {
  %3 = alloca ptr, align 8
  %4 = alloca i64, align 8
  store ptr %0, ptr %3, align 8, !tbaa !294
  store i64 %1, ptr %4, align 8, !tbaa !65
  %5 = load ptr, ptr %3, align 8
  %6 = getelementptr inbounds nuw %"struct.std::_Vector_base.39", ptr %5, i32 0, i32 0
  %7 = getelementptr inbounds nuw %"struct.std::_Vector_base<Luau::CodeGen::IrConst, std::allocator<Luau::CodeGen::IrConst>>::_Vector_impl_data", ptr %6, i32 0, i32 0
  %8 = load ptr, ptr %7, align 8, !tbaa !296
  %9 = load i64, ptr %4, align 8, !tbaa !65
  %10 = getelementptr inbounds nuw %"struct.Luau::CodeGen::IrConst", ptr %8, i64 %9
  ret ptr %10
}

; Function Attrs: mustprogress nounwind uwtable
define linkonce_odr dso_local noundef nonnull align 8 dereferenceable(16) ptr @_ZN4Luau7CodeGen10IrFunction7constOpENS0_4IrOpE(ptr noundef nonnull align 8 dereferenceable(624) %0, i32 %1) #2 comdat align 2 {
  %3 = alloca %"struct.Luau::CodeGen::IrOp", align 4
  %4 = alloca ptr, align 8
  %5 = getelementptr inbounds nuw %"struct.Luau::CodeGen::IrOp", ptr %3, i32 0, i32 0
  store i32 %1, ptr %5, align 4
  store ptr %0, ptr %4, align 8, !tbaa !13
  %6 = load ptr, ptr %4, align 8
  %7 = getelementptr inbounds nuw %"struct.Luau::CodeGen::IrFunction", ptr %6, i32 0, i32 2
  %8 = load i32, ptr %3, align 4
  %9 = lshr i32 %8, 4
  %10 = zext i32 %9 to i64
  %11 = call noundef nonnull align 8 dereferenceable(16) ptr @_ZNSt6vectorIN4Luau7CodeGen7IrConstESaIS2_EEixEm(ptr noundef nonnull align 8 dereferenceable(24) %7, i64 noundef %10) #13
  ret ptr %11
}

; Function Attrs: mustprogress nounwind uwtable
define linkonce_odr dso_local noundef i32 @_ZN4Luau7CodeGen10IrFunction5intOpENS0_4IrOpE(ptr noundef nonnull align 8 dereferenceable(624) %0, i32 %1) #2 comdat align 2 {
  %3 = alloca %"struct.Luau::CodeGen::IrOp", align 4
  %4 = alloca ptr, align 8
  %5 = alloca ptr, align 8
  %6 = alloca %"struct.Luau::CodeGen::IrOp", align 4
  %7 = getelementptr inbounds nuw %"struct.Luau::CodeGen::IrOp", ptr %3, i32 0, i32 0
  store i32 %1, ptr %7, align 4
  store ptr %0, ptr %4, align 8, !tbaa !13
  %8 = load ptr, ptr %4, align 8
  call void @llvm.lifetime.start.p0(i64 8, ptr %5) #13
  call void @llvm.memcpy.p0.p0.i64(ptr align 4 %6, ptr align 4 %3, i64 4, i1 false), !tbaa.struct !87
  %9 = getelementptr inbounds nuw %"struct.Luau::CodeGen::IrOp", ptr %6, i32 0, i32 0
  %10 = load i32, ptr %9, align 4
  %11 = call noundef nonnull align 8 dereferenceable(16) ptr @_ZN4Luau7CodeGen10IrFunction7constOpENS0_4IrOpE(ptr noundef nonnull align 8 dereferenceable(624) %8, i32 %10)
  store ptr %11, ptr %5, align 8, !tbaa !250
  %12 = load ptr, ptr %5, align 8, !tbaa !250
  %13 = getelementptr inbounds nuw %"struct.Luau::CodeGen::IrConst", ptr %12, i32 0, i32 1
  %14 = load i32, ptr %13, align 8, !tbaa !56
  call void @llvm.lifetime.end.p0(i64 8, ptr %5) #13
  ret i32 %14
}

; Function Attrs: mustprogress uwtable
define dso_local noundef i32 @_ZNK4Luau7CodeGen3A6413IrLoweringA645intOpENS0_4IrOpE(ptr noundef nonnull align 8 dereferenceable(1497) %0, i32 %1) #0 align 2 {
  %3 = alloca %"struct.Luau::CodeGen::IrOp", align 4
  %4 = alloca ptr, align 8
  %5 = alloca %"struct.Luau::CodeGen::IrOp", align 4
  %6 = getelementptr inbounds nuw %"struct.Luau::CodeGen::IrOp", ptr %3, i32 0, i32 0
  store i32 %1, ptr %6, align 4
  store ptr %0, ptr %4, align 8, !tbaa !4
  %7 = load ptr, ptr %4, align 8
  %8 = getelementptr inbounds nuw %"struct.Luau::CodeGen::A64::IrLoweringA64", ptr %7, i32 0, i32 2
  %9 = load ptr, ptr %8, align 8, !tbaa !123
  call void @llvm.memcpy.p0.p0.i64(ptr align 4 %5, ptr align 4 %3, i64 4, i1 false), !tbaa.struct !87
  %10 = getelementptr inbounds nuw %"struct.Luau::CodeGen::IrOp", ptr %5, i32 0, i32 0
  %11 = load i32, ptr %10, align 4
  %12 = call noundef i32 @_ZN4Luau7CodeGen10IrFunction5intOpENS0_4IrOpE(ptr noundef nonnull align 8 dereferenceable(624) %9, i32 %11)
  ret i32 %12
}